; ModuleID = '29/1935.c'
source_filename = "29/1935.c"
target datalayout = "e-m:e-p270:32:32-p271:32:32-p272:64:64-i64:64-f80:128-n8:16:32:64-S128"
target triple = "x86_64-pc-linux-gnu"

@.str = private unnamed_addr constant [3 x i8] c"%d\00", align 1
@.str.1 = private unnamed_addr constant [6 x i8] c"%.3f\0A\00", align 1

; Function Attrs: noinline nounwind uwtable
define dso_local i32 @main() #0 {
  %1 = alloca i32, align 4
  %2 = alloca i32, align 4
  %3 = alloca i32, align 4
  %4 = alloca i32, align 4
  %5 = alloca [100 x i32], align 16
  %6 = alloca i32, align 4
  %7 = alloca i32, align 4
  %8 = alloca [100 x double], align 16
  %9 = alloca [100 x double], align 16
  %10 = alloca double, align 8
  store i32 0, i32* %1, align 4
  store i32 2, i32* %6, align 4
  store i32 1, i32* %7, align 4
  %11 = call i32 (i8*, ...) @__isoc99_scanf(i8* getelementptr inbounds ([3 x i8], [3 x i8]* @.str, i64 0, i64 0), i32* %2)
  %12 = load i32, i32* %6, align 4
  %13 = sitofp i32 %12 to double
  %14 = fmul double %13, 1.000000e+00
  %15 = load i32, i32* %7, align 4
  %16 = sitofp i32 %15 to double
  %17 = fdiv double %14, %16
  %18 = getelementptr inbounds [100 x double], [100 x double]* %8, i64 0, i64 1
  store double %17, double* %18, align 8
  %19 = getelementptr inbounds [100 x double], [100 x double]* %8, i64 0, i64 1
  %20 = load double, double* %19, align 8
  store double %20, double* %10, align 8
  store i32 1, i32* %3, align 4
  br label %21

21:                                               ; preds = %30, %0
  %22 = load i32, i32* %3, align 4
  %23 = load i32, i32* %2, align 4
  %24 = icmp sle i32 %22, %23
  br i1 %24, label %25, label %33

25:                                               ; preds = %21
  %26 = load i32, i32* %3, align 4
  %27 = sext i32 %26 to i64
  %28 = getelementptr inbounds [100 x i32], [100 x i32]* %5, i64 0, i64 %27
  %29 = call i32 (i8*, ...) @__isoc99_scanf(i8* getelementptr inbounds ([3 x i8], [3 x i8]* @.str, i64 0, i64 0), i32* %28)
  br label %30

30:                                               ; preds = %25
  %31 = load i32, i32* %3, align 4
  %32 = add nsw i32 %31, 1
  store i32 %32, i32* %3, align 4
  br label %21

33:                                               ; preds = %21
  store i32 1, i32* %3, align 4
  br label %34

34:                                               ; preds = %80, %33
  %35 = load i32, i32* %3, align 4
  %36 = load i32, i32* %2, align 4
  %37 = icmp sle i32 %35, %36
  br i1 %37, label %38, label %83

38:                                               ; preds = %34
  store i32 1, i32* %4, align 4
  br label %39

39:                                               ; preds = %70, %38
  %40 = load i32, i32* %4, align 4
  %41 = load i32, i32* %3, align 4
  %42 = sext i32 %41 to i64
  %43 = getelementptr inbounds [100 x i32], [100 x i32]* %5, i64 0, i64 %42
  %44 = load i32, i32* %43, align 4
  %45 = icmp slt i32 %40, %44
  br i1 %45, label %46, label %73

46:                                               ; preds = %39
  %47 = load i32, i32* %6, align 4
  %48 = load i32, i32* %7, align 4
  %49 = add nsw i32 %47, %48
  store i32 %49, i32* %6, align 4
  %50 = load i32, i32* %6, align 4
  %51 = load i32, i32* %7, align 4
  %52 = sub nsw i32 %50, %51
  store i32 %52, i32* %7, align 4
  %53 = load i32, i32* %6, align 4
  %54 = sitofp i32 %53 to double
  %55 = fmul double %54, 1.000000e+00
  %56 = load i32, i32* %7, align 4
  %57 = sitofp i32 %56 to double
  %58 = fdiv double %55, %57
  %59 = load i32, i32* %4, align 4
  %60 = add nsw i32 %59, 1
  %61 = sext i32 %60 to i64
  %62 = getelementptr inbounds [100 x double], [100 x double]* %8, i64 0, i64 %61
  store double %58, double* %62, align 8
  %63 = load double, double* %10, align 8
  %64 = load i32, i32* %4, align 4
  %65 = add nsw i32 %64, 1
  %66 = sext i32 %65 to i64
  %67 = getelementptr inbounds [100 x double], [100 x double]* %8, i64 0, i64 %66
  %68 = load double, double* %67, align 8
  %69 = fadd double %63, %68
  store double %69, double* %10, align 8
  br label %70

70:                                               ; preds = %46
  %71 = load i32, i32* %4, align 4
  %72 = add nsw i32 %71, 1
  store i32 %72, i32* %4, align 4
  br label %39

73:                                               ; preds = %39
  %74 = load double, double* %10, align 8
  %75 = load i32, i32* %3, align 4
  %76 = sext i32 %75 to i64
  %77 = getelementptr inbounds [100 x double], [100 x double]* %9, i64 0, i64 %76
  store double %74, double* %77, align 8
  store i32 2, i32* %6, align 4
  store i32 1, i32* %7, align 4
  %78 = getelementptr inbounds [100 x double], [100 x double]* %8, i64 0, i64 1
  %79 = load double, double* %78, align 8
  store double %79, double* %10, align 8
  br label %80

80:                                               ; preds = %73
  %81 = load i32, i32* %3, align 4
  %82 = add nsw i32 %81, 1
  store i32 %82, i32* %3, align 4
  br label %34

83:                                               ; preds = %34
  store i32 1, i32* %3, align 4
  br label %84

84:                                               ; preds = %94, %83
  %85 = load i32, i32* %3, align 4
  %86 = load i32, i32* %2, align 4
  %87 = icmp sle i32 %85, %86
  br i1 %87, label %88, label %97

88:                                               ; preds = %84
  %89 = load i32, i32* %3, align 4
  %90 = sext i32 %89 to i64
  %91 = getelementptr inbounds [100 x double], [100 x double]* %9, i64 0, i64 %90
  %92 = load double, double* %91, align 8
  %93 = call i32 (i8*, ...) @printf(i8* getelementptr inbounds ([6 x i8], [6 x i8]* @.str.1, i64 0, i64 0), double %92)
  br label %94

94:                                               ; preds = %88
  %95 = load i32, i32* %3, align 4
  %96 = add nsw i32 %95, 1
  store i32 %96, i32* %3, align 4
  br label %84

97:                                               ; preds = %84
  ret i32 0
}

declare dso_local i32 @__isoc99_scanf(i8*, ...) #1

declare dso_local i32 @printf(i8*, ...) #1


!llvm.module.flags = !{!0}
!llvm.ident = !{!1}

!0 = !{i32 1, !"wchar_size", i32 4}
!1 = !{!"clang version 10.0.0-4ubuntu1 "}
